target datalayout = "e-m:e-p270:32:32-p271:32:32-p272:64:64-i64:64-i128:128-f80:128-n8:16:32:64-S128"
target triple = "x86_64-pc-linux-gnu"

%struct.redisServer = type { i32, i64, ptr, ptr, ptr, i32, i32, i32, i32, i32, ptr, ptr, ptr, ptr, ptr, i32, i32, i32, i32, i64, i32, i32, i32, i32, ptr, i32, i32, [41 x i8], i32, i64, i32, i32, i32, ptr, ptr, i32, i32, i64, ptr, ptr, ptr, ptr, [2 x i32], i32, i32, i32, i32, i32, i32, [16 x ptr], i32, ptr, ptr, i32, [8 x %struct.connListener], i32, %struct.connListener, ptr, ptr, ptr, ptr, ptr, ptr, ptr, ptr, ptr, ptr, i32, ptr, i32, ptr, [3 x %struct.pause_event], [256 x i8], ptr, i64, i32, i32, [128 x i32], i32, i32, i64, i32, i32, i32, i32, i32, i64, i64, i64, i64, i64, i64, i64, i64, i64, i64, double, i64, i64, i64, i64, i64, i64, i64, i64, i64, i64, i64, i64, i64, i64, i64, i64, i64, i64, i64, i64, i64, double, i64, i64, i64, i64, i64, ptr, i64, i64, i64, %struct.malloc_stats, i64, i64, i64, i64, i64, i64, i64, i64, i64, i64, i64, i64, double, [4 x i64], i64, i64, i64, i64, [128 x i64], [128 x i64], i64, i64, [7 x %struct.anon], i64, i64, i64, i64, i64, i64, [4 x %struct.durationStats], i32, i32, i32, i32, i32, i32, i32, i32, i32, i32, i32, i32, i64, i32, i32, i32, i32, i64, i64, i32, i32, i32, i32, i32, ptr, [3 x %struct.clientBufferLimitsConfig], i32, i32, i32, ptr, i32, i32, i32, i32, i32, i32, ptr, ptr, i32, i32, i64, i64, i64, i64, i64, i32, i32, ptr, i32, i32, i64, i64, i64, i64, i64, i32, i32, i64, i32, i32, i32, i32, i32, i32, i32, i32, ptr, i32, i64, i64, i64, i64, i32, ptr, i32, ptr, i32, i32, i32, i64, i64, i64, i64, i32, i32, i32, i32, i32, i32, ptr, i32, i32, ptr, i32, i32, i32, [2 x i32], i32, %struct.redisOpArray, i32, ptr, i32, ptr, i32, i32, i32, i32, i32, i32, i32, [41 x i8], [41 x i8], i64, i64, i64, i64, i32, i32, ptr, i64, i64, %struct.replDataBuf, i64, i64, i32, i32, i32, i32, i32, i32, i32, i32, i32, i64, ptr, i64, ptr, ptr, ptr, i32, i32, ptr, ptr, i32, i32, i32, i64, i64, i64, i64, ptr, ptr, i32, ptr, i64, i32, i32, i32, i64, i32, i32, i32, i32, ptr, i32, i32, [41 x i8], i64, i32, ptr, i32, i32, i64, i64, i32, i32, i32, i32, i32, i64, [3 x i32], i32, i32, i32, [10 x i32], ptr, ptr, i32, i64, ptr, ptr, i32, i32, i32, i32, i64, i64, i64, i64, i64, i64, i64, i64, i64, i64, i32, i32, i64, i64, i32, i64, i64, i64, i64, i64, ptr, ptr, i32, ptr, i32, i32, i32, i32, i64, i64, ptr, ptr, i32, i32, i32, i32, i32, ptr, ptr, ptr, i32, i32, i32, i32, i32, i32, i32, i64, i32, i32, i64, i32, i32, i32, i32, i32, i32, i32, i64, ptr, ptr, i64, ptr, i32, %struct.aclInfo, i32, i64, i32, i32, i32, %struct.redisTLSContextConfig, ptr, ptr, ptr, ptr, ptr, i64, i32, ptr, i32, i32, i32, i64, i32, ptr }
%struct.connListener = type { [16 x i32], i32, ptr, i32, i32, ptr, ptr }
%struct.pause_event = type { i32, i64 }
%struct.malloc_stats = type { i64, i64, i64, i64, i64, i64, i64, i64, i64, i64, i64 }
%struct.anon = type { i64, i64, [16 x i64], i32 }
%struct.durationStats = type { i64, i64, i64 }
%struct.clientBufferLimitsConfig = type { i64, i64, i64 }
%struct.redisOpArray = type { ptr, i32, i32 }
%struct.replDataBuf = type { ptr, i64, i64, i64, i64 }
%struct.aclInfo = type { i64, i64, i64, i64 }
%struct.redisTLSContextConfig = type { ptr, ptr, ptr, ptr, ptr, ptr, ptr, ptr, ptr, ptr, ptr, ptr, i32, i32, i32, i32 }
%struct.list = type { ptr, ptr, ptr, ptr, ptr, i64 }
%struct.client = type { i64, i64, ptr, i8, i8, i8, i8, i32, ptr, ptr, ptr, ptr, ptr, i64, i64, i32, ptr, i32, i32, ptr, i64, ptr, ptr, ptr, ptr, ptr, i32, i32, i64, ptr, i64, ptr, i64, i64, i64, i32, ptr, i64, i64, i32, i32, i32, i32, i64, i64, ptr, i64, i64, i64, i64, i64, i64, i64, i64, [41 x i8], i32, ptr, i32, i32, i64, %struct.multiState, %struct.blockingState, i64, ptr, ptr, ptr, ptr, ptr, ptr, ptr, ptr, ptr, ptr, ptr, ptr, ptr, ptr, i64, ptr, i64, i32, ptr, ptr, ptr, i64, %struct.listNode, i64, i64, i32, i64, ptr }
%struct.multiState = type { ptr, i32, i32, i32, i64, i32 }
%struct.blockingState = type { i32, i64, i32, ptr, i32, i32, i64, ptr, ptr, i64 }
%struct.listNode = type { ptr, ptr, ptr }
%struct.connection = type { ptr, i32, i32, i32, i16, i16, i16, ptr, ptr, ptr, ptr, ptr }
%struct.ConnectionType = type { ptr, ptr, ptr, ptr, ptr, ptr, ptr, ptr, ptr, ptr, ptr, ptr, ptr, ptr, ptr, ptr, ptr, ptr, ptr, ptr, ptr, ptr, ptr, ptr, ptr, ptr, ptr, ptr, ptr, ptr }
%struct.listIter = type { ptr, i32 }

@server = external global %struct.redisServer, align 8

; Function Attrs: inlinehint nounwind uwtable
define internal i32 @connSetWriteHandlerWithBarrier(ptr noundef %0, ptr noundef %1, i32 noundef %2) #4 {
  %4 = alloca ptr, align 8
  %5 = alloca ptr, align 8
  %6 = alloca i32, align 4
  store ptr %0, ptr %4, align 8, !tbaa !69
  store ptr %1, ptr %5, align 8, !tbaa !10
  store i32 %2, ptr %6, align 4, !tbaa !19
  %7 = load ptr, ptr %4, align 8, !tbaa !69
  %8 = getelementptr inbounds nuw %struct.connection, ptr %7, i32 0, i32 0
  %9 = load ptr, ptr %8, align 8, !tbaa !151
  %10 = getelementptr inbounds nuw %struct.ConnectionType, ptr %9, i32 0, i32 19
  %11 = load ptr, ptr %10, align 8, !tbaa !162
  %12 = load ptr, ptr %4, align 8, !tbaa !69
  %13 = load ptr, ptr %5, align 8, !tbaa !10
  %14 = load i32, ptr %6, align 4, !tbaa !19
  %15 = call i32 %11(ptr noundef %12, ptr noundef %13, i32 noundef %14)
  ret i32 %15
}

; Function Attrs: inlinehint nounwind uwtable
define internal i32 @_clientHasPendingRepliesNonSlave(ptr noundef %0) #4 {
  %2 = alloca ptr, align 8
  store ptr %0, ptr %2, align 8, !tbaa !24
  %3 = load ptr, ptr %2, align 8, !tbaa !24
  %4 = getelementptr inbounds nuw %struct.client, ptr %3, i32 0, i32 88
  %5 = load i32, ptr %4, align 8, !tbaa !79
  %6 = icmp ne i32 %5, 0
  br i1 %6, label %14, label %7

7:                                                ; preds = %1
  %8 = load ptr, ptr %2, align 8, !tbaa !24
  %9 = getelementptr inbounds nuw %struct.client, ptr %8, i32 0, i32 29
  %10 = load ptr, ptr %9, align 8, !tbaa !125
  %11 = getelementptr inbounds nuw %struct.list, ptr %10, i32 0, i32 5
  %12 = load i64, ptr %11, align 8, !tbaa !182
  %13 = icmp ne i64 %12, 0
  br label %14

14:                                               ; preds = %7, %1
  %15 = phi i1 [ true, %1 ], [ %13, %7 ]
  %16 = zext i1 %15 to i32
  ret i32 %16
}

; Function Attrs: inlinehint nounwind uwtable
define internal i32 @clientTypeIsSlave(ptr noundef %0) #4 {
  %2 = alloca i32, align 4
  %3 = alloca ptr, align 8
  store ptr %0, ptr %3, align 8, !tbaa !24
  %4 = load ptr, ptr %3, align 8, !tbaa !24
  %5 = getelementptr inbounds nuw %struct.client, ptr %4, i32 0, i32 1
  %6 = load i64, ptr %5, align 8, !tbaa !104
  %7 = and i64 %6, 1
  %8 = icmp ne i64 %7, 0
  br i1 %8, label %9, label %16

9:                                                ; preds = %1
  %10 = load ptr, ptr %3, align 8, !tbaa !24
  %11 = getelementptr inbounds nuw %struct.client, ptr %10, i32 0, i32 1
  %12 = load i64, ptr %11, align 8, !tbaa !104
  %13 = and i64 %12, 4
  %14 = icmp ne i64 %13, 0
  %15 = xor i1 %14, true
  br label %16

16:                                               ; preds = %9, %1
  %17 = phi i1 [ false, %1 ], [ %15, %9 ]
  %18 = xor i1 %17, true
  %19 = xor i1 %18, true
  %20 = zext i1 %19 to i32
  %21 = sext i32 %20 to i64
  %22 = call i64 @llvm.expect.i64(i64 %21, i64 0)
  %23 = icmp ne i64 %22, 0
  br i1 %23, label %24, label %25

24:                                               ; preds = %16
  store i32 1, ptr %2, align 4
  br label %26

25:                                               ; preds = %16
  store i32 0, ptr %2, align 4
  br label %26

26:                                               ; preds = %25, %24
  %27 = load i32, ptr %2, align 4
  ret i32 %27
}

; Function Attrs: nounwind uwtable
define dso_local void @installClientWriteHandler(ptr noundef %0) #0 {
  %2 = alloca ptr, align 8
  %3 = alloca i32, align 4
  store ptr %0, ptr %2, align 8, !tbaa !24
  call void @llvm.lifetime.start.p0(i64 4, ptr %3) #16
  store i32 0, ptr %3, align 4, !tbaa !19
  %4 = load i32, ptr getelementptr inbounds nuw (%struct.redisServer, ptr @server, i32 0, i32 193), align 8, !tbaa !160
  %5 = icmp eq i32 %4, 1
  br i1 %5, label %6, label %10

6:                                                ; preds = %1
  %7 = load i32, ptr getelementptr inbounds nuw (%struct.redisServer, ptr @server, i32 0, i32 194), align 4, !tbaa !161
  %8 = icmp eq i32 %7, 1
  br i1 %8, label %9, label %10

9:                                                ; preds = %6
  store i32 1, ptr %3, align 4, !tbaa !19
  br label %10

10:                                               ; preds = %9, %6, %1
  %11 = load ptr, ptr %2, align 8, !tbaa !24
  %12 = getelementptr inbounds nuw %struct.client, ptr %11, i32 0, i32 2
  %13 = load ptr, ptr %12, align 8, !tbaa !75
  %14 = load i32, ptr %3, align 4, !tbaa !19
  %15 = call i32 @connSetWriteHandlerWithBarrier(ptr noundef %13, ptr noundef @sendReplyToClient, i32 noundef %14)
  %16 = icmp eq i32 %15, -1
  br i1 %16, label %17, label %19

17:                                               ; preds = %10
  %18 = load ptr, ptr %2, align 8, !tbaa !24
  call void @freeClientAsync(ptr noundef %18)
  br label %19

19:                                               ; preds = %17, %10
  call void @llvm.lifetime.end.p0(i64 4, ptr %3) #16
  ret void
}

; Function Attrs: nounwind uwtable
define dso_local i32 @clientHasPendingReplies(ptr noundef %0) #0 {
  %2 = alloca i32, align 4
  %3 = alloca ptr, align 8
  store ptr %0, ptr %3, align 8, !tbaa !24
  %4 = load ptr, ptr %3, align 8, !tbaa !24
  %5 = call i32 @clientTypeIsSlave(ptr noundef %4)
  %6 = icmp ne i32 %5, 0
  %7 = xor i1 %6, true
  %8 = xor i1 %7, true
  %9 = zext i1 %8 to i32
  %10 = sext i32 %9 to i64
  %11 = call i64 @llvm.expect.i64(i64 %10, i64 0)
  %12 = icmp ne i64 %11, 0
  br i1 %12, label %13, label %16

13:                                               ; preds = %1
  %14 = load ptr, ptr %3, align 8, !tbaa !24
  %15 = call i32 @_clientHasPendingRepliesSlave(ptr noundef %14)
  store i32 %15, ptr %2, align 4
  br label %19

16:                                               ; preds = %1
  %17 = load ptr, ptr %3, align 8, !tbaa !24
  %18 = call i32 @_clientHasPendingRepliesNonSlave(ptr noundef %17)
  store i32 %18, ptr %2, align 4
  br label %19

19:                                               ; preds = %16, %13
  %20 = load i32, ptr %2, align 4
  ret i32 %20
}

; Function Attrs: nounwind uwtable
define dso_local i32 @handleClientsWithPendingWrites() #0 {
  %1 = alloca %struct.listIter, align 8
  %2 = alloca ptr, align 8
  %3 = alloca i32, align 4
  %4 = alloca ptr, align 8
  %5 = alloca i32, align 4
  call void @llvm.lifetime.start.p0(i64 16, ptr %1) #16
  call void @llvm.lifetime.start.p0(i64 8, ptr %2) #16
  call void @llvm.lifetime.start.p0(i64 4, ptr %3) #16
  %6 = load ptr, ptr getelementptr inbounds nuw (%struct.redisServer, ptr @server, i32 0, i32 59), align 8, !tbaa !165
  %7 = getelementptr inbounds nuw %struct.list, ptr %6, i32 0, i32 5
  %8 = load i64, ptr %7, align 8, !tbaa !182
  %9 = trunc i64 %8 to i32
  store i32 %9, ptr %3, align 4, !tbaa !19
  %10 = load ptr, ptr getelementptr inbounds nuw (%struct.redisServer, ptr @server, i32 0, i32 59), align 8, !tbaa !165
  call void @listRewind(ptr noundef %10, ptr noundef %1)
  br label %11

11:                                               ; preds = %66, %64, %0
  %12 = call ptr @listNext(ptr noundef %1)
  store ptr %12, ptr %2, align 8, !tbaa !167
  %13 = icmp ne ptr %12, null
  br i1 %13, label %14, label %67

14:                                               ; preds = %11
  call void @llvm.lifetime.start.p0(i64 8, ptr %4) #16
  %15 = load ptr, ptr %2, align 8, !tbaa !167
  %16 = getelementptr inbounds nuw %struct.listNode, ptr %15, i32 0, i32 2
  %17 = load ptr, ptr %16, align 8, !tbaa !168
  store ptr %17, ptr %4, align 8, !tbaa !24
  %18 = load ptr, ptr %4, align 8, !tbaa !24
  %19 = getelementptr inbounds nuw %struct.client, ptr %18, i32 0, i32 1
  %20 = load i64, ptr %19, align 8, !tbaa !104
  %21 = and i64 %20, -2097153
  store i64 %21, ptr %19, align 8, !tbaa !104
  %22 = load ptr, ptr getelementptr inbounds nuw (%struct.redisServer, ptr @server, i32 0, i32 59), align 8, !tbaa !165
  %23 = load ptr, ptr %2, align 8, !tbaa !167
  call void @listUnlinkNode(ptr noundef %22, ptr noundef %23)
  %24 = load ptr, ptr %4, align 8, !tbaa !24
  %25 = getelementptr inbounds nuw %struct.client, ptr %24, i32 0, i32 1
  %26 = load i64, ptr %25, align 8, !tbaa !104
  %27 = and i64 %26, 268435456
  %28 = icmp ne i64 %27, 0
  br i1 %28, label %29, label %30

29:                                               ; preds = %14
  store i32 2, ptr %5, align 4
  br label %64, !llvm.loop !258

30:                                               ; preds = %14
  %31 = load ptr, ptr %4, align 8, !tbaa !24
  %32 = getelementptr inbounds nuw %struct.client, ptr %31, i32 0, i32 1
  %33 = load i64, ptr %32, align 8, !tbaa !104
  %34 = and i64 %33, 1024
  %35 = icmp ne i64 %34, 0
  br i1 %35, label %36, label %37

36:                                               ; preds = %30
  store i32 2, ptr %5, align 4
  br label %64, !llvm.loop !258

37:                                               ; preds = %30
  %38 = load i32, ptr getelementptr inbounds nuw (%struct.redisServer, ptr @server, i32 0, i32 76), align 4, !tbaa !220
  %39 = icmp sgt i32 %38, 1
  br i1 %39, label %40, label %52

40:                                               ; preds = %37
  %41 = load ptr, ptr %4, align 8, !tbaa !24
  %42 = getelementptr inbounds nuw %struct.client, ptr %41, i32 0, i32 1
  %43 = load i64, ptr %42, align 8, !tbaa !104
  %44 = and i64 %43, 64
  %45 = icmp ne i64 %44, 0
  br i1 %45, label %52, label %46

46:                                               ; preds = %40
  %47 = load ptr, ptr %4, align 8, !tbaa !24
  %48 = call i32 @isClientMustHandledByMainThread(ptr noundef %47)
  %49 = icmp ne i32 %48, 0
  br i1 %49, label %52, label %50

50:                                               ; preds = %46
  %51 = load ptr, ptr %4, align 8, !tbaa !24
  call void @assignClientToIOThread(ptr noundef %51)
  store i32 2, ptr %5, align 4
  br label %64, !llvm.loop !258

52:                                               ; preds = %46, %40, %37
  %53 = load ptr, ptr %4, align 8, !tbaa !24
  %54 = call i32 @writeToClient(ptr noundef %53, i32 noundef 0)
  %55 = icmp eq i32 %54, -1
  br i1 %55, label %56, label %57

56:                                               ; preds = %52
  store i32 2, ptr %5, align 4
  br label %64, !llvm.loop !258

57:                                               ; preds = %52
  %58 = load ptr, ptr %4, align 8, !tbaa !24
  %59 = call i32 @clientHasPendingReplies(ptr noundef %58)
  %60 = icmp ne i32 %59, 0
  br i1 %60, label %61, label %63

61:                                               ; preds = %57
  %62 = load ptr, ptr %4, align 8, !tbaa !24
  call void @installClientWriteHandler(ptr noundef %62)
  br label %63

63:                                               ; preds = %61, %57
  store i32 0, ptr %5, align 4
  br label %64

64:                                               ; preds = %63, %56, %50, %36, %29
  call void @llvm.lifetime.end.p0(i64 8, ptr %4) #16
  %65 = load i32, ptr %5, align 4
  switch i32 %65, label %69 [
    i32 0, label %66
    i32 2, label %11
  ]

66:                                               ; preds = %64
  br label %11, !llvm.loop !258

67:                                               ; preds = %11
  %68 = load i32, ptr %3, align 4, !tbaa !19
  store i32 1, ptr %5, align 4
  call void @llvm.lifetime.end.p0(i64 4, ptr %3) #16
  call void @llvm.lifetime.end.p0(i64 8, ptr %2) #16
  call void @llvm.lifetime.end.p0(i64 16, ptr %1) #16
  ret i32 %68

69:                                               ; preds = %64
  unreachable
}