; Function Attrs: nounwind uwtable
define dso_local i32 @handleClientsWithPendingWrites() local_unnamed_addr #0 {
  %1 = alloca %struct.listIter, align 8
  call void @llvm.lifetime.start.p0(i64 16, ptr nonnull %1) #26
  %2 = load ptr, ptr getelementptr inbounds nuw (i8, ptr @server, i64 1448), align 8, !tbaa !119
  %3 = getelementptr inbounds nuw i8, ptr %2, i64 40
  %4 = load i64, ptr %3, align 8, !tbaa !122
  call void @listRewind(ptr noundef %2, ptr noundef nonnull %1) #26
  %5 = call ptr @listNext(ptr noundef nonnull %1) #26
  %.not20 = icmp eq ptr %5, null
  br i1 %.not20, label %._crit_edge, label %.lr.ph

.lr.ph:                                           ; preds = %0, %installClientWriteHandler.exit
  %6 = phi ptr [ %49, %installClientWriteHandler.exit ], [ %5, %0 ]
  %7 = getelementptr inbounds nuw i8, ptr %6, i64 16
  %8 = load ptr, ptr %7, align 8, !tbaa !123
  %9 = getelementptr inbounds nuw i8, ptr %8, i64 8
  %10 = load i64, ptr %9, align 8, !tbaa !86
  %11 = and i64 %10, -2097153
  store i64 %11, ptr %9, align 8, !tbaa !86
  %12 = load ptr, ptr getelementptr inbounds nuw (i8, ptr @server, i64 1448), align 8, !tbaa !119
  call void @listUnlinkNode(ptr noundef %12, ptr noundef nonnull %6) #26
  %13 = load i64, ptr %9, align 8, !tbaa !86
  %14 = and i64 %13, 268436480
  %or.cond16 = icmp eq i64 %14, 0
  br i1 %or.cond16, label %15, label %installClientWriteHandler.exit, !llvm.loop !226

15:                                               ; preds = %.lr.ph
  %16 = load i32, ptr getelementptr inbounds nuw (i8, ptr @server, i64 1868), align 4, !tbaa !182
  %17 = icmp sgt i32 %16, 1
  %18 = and i64 %13, 64
  %.not13 = icmp eq i64 %18, 0
  %or.cond = and i1 %.not13, %17
  br i1 %or.cond, label %19, label %22

19:                                               ; preds = %15
  %20 = call i32 @isClientMustHandledByMainThread(ptr noundef nonnull %8) #26
  %.not14 = icmp eq i32 %20, 0
  br i1 %.not14, label %21, label %22

21:                                               ; preds = %19
  call void @assignClientToIOThread(ptr noundef nonnull %8) #26
  br label %installClientWriteHandler.exit, !llvm.loop !226

22:                                               ; preds = %19, %15
  %23 = call i32 @writeToClient(ptr noundef nonnull %8, i32 noundef 0)
  %24 = icmp eq i32 %23, -1
  br i1 %24, label %installClientWriteHandler.exit, label %25, !llvm.loop !226

25:                                               ; preds = %22
  %.val.i = load i64, ptr %9, align 8, !tbaa !86
  %26 = and i64 %.val.i, 5
  %.not.i = icmp eq i64 %26, 1
  br i1 %.not.i, label %27, label %30, !prof !121

27:                                               ; preds = %25
  %28 = call fastcc i32 @_clientHasPendingRepliesSlave(ptr noundef nonnull readonly %8)
  %29 = icmp eq i32 %28, 0
  br i1 %29, label %installClientWriteHandler.exit, label %clientHasPendingReplies.exit.thread

30:                                               ; preds = %25
  %31 = getelementptr inbounds nuw i8, ptr %8, i64 776
  %32 = load i32, ptr %31, align 8, !tbaa !76
  %.not.i.i = icmp eq i32 %32, 0
  br i1 %.not.i.i, label %clientHasPendingReplies.exit, label %clientHasPendingReplies.exit.thread

clientHasPendingReplies.exit:                     ; preds = %30
  %33 = getelementptr inbounds nuw i8, ptr %8, i64 184
  %34 = load ptr, ptr %33, align 8, !tbaa !96
  %35 = getelementptr inbounds nuw i8, ptr %34, i64 40
  %36 = load i64, ptr %35, align 8, !tbaa !122
  %.not19 = icmp eq i64 %36, 0
  br i1 %.not19, label %installClientWriteHandler.exit, label %clientHasPendingReplies.exit.thread

clientHasPendingReplies.exit.thread:              ; preds = %27, %30, %clientHasPendingReplies.exit
  %37 = load i32, ptr getelementptr inbounds nuw (i8, ptr @server, i64 6520), align 8, !tbaa !115
  %38 = icmp eq i32 %37, 1
  %39 = load i32, ptr getelementptr inbounds nuw (i8, ptr @server, i64 6524), align 4
  %40 = icmp eq i32 %39, 1
  %or.cond.i = select i1 %38, i1 %40, i1 false
  %spec.store.select.i = zext i1 %or.cond.i to i32
  %41 = getelementptr inbounds nuw i8, ptr %8, i64 16
  %42 = load ptr, ptr %41, align 8, !tbaa !75
  %43 = load ptr, ptr %42, align 8, !tbaa !66
  %44 = getelementptr inbounds nuw i8, ptr %43, i64 152
  %45 = load ptr, ptr %44, align 8, !tbaa !116
  %46 = call i32 %45(ptr noundef nonnull %42, ptr noundef nonnull @sendReplyToClient, i32 noundef range(i32 0, 2) %spec.store.select.i) #26
  %47 = icmp eq i32 %46, -1
  br i1 %47, label %48, label %installClientWriteHandler.exit

48:                                               ; preds = %clientHasPendingReplies.exit.thread
  call void @freeClientAsync(ptr noundef nonnull %8)
  br label %installClientWriteHandler.exit

installClientWriteHandler.exit:                   ; preds = %27, %48, %clientHasPendingReplies.exit.thread, %clientHasPendingReplies.exit, %22, %.lr.ph, %21
  %49 = call ptr @listNext(ptr noundef nonnull %1) #26
  %.not = icmp eq ptr %49, null
  br i1 %.not, label %._crit_edge, label %.lr.ph

._crit_edge:                                      ; preds = %installClientWriteHandler.exit, %0
  %50 = trunc i64 %4 to i32
  call void @llvm.lifetime.end.p0(i64 16, ptr nonnull %1) #26
  ret i32 %50
}